; Function Attrs: nounwind sspstrong uwtable
define internal i64 @ossl_bn_mul(i64 noundef %0, i64 noundef %1) #0 {
  %3 = alloca i64, align 8
  store i64 %1, ptr %3, align 8, !tbaa !6
  %4 = call ptr @ossl_bn_value_ptr(ptr noundef nonnull %3)
  %5 = call ptr @rb_check_typeddata(i64 noundef %0, ptr noundef nonnull @ossl_bn_type) #11
  %.not = icmp eq ptr %5, null
  br i1 %.not, label %6, label %8

6:                                                ; preds = %2
  %7 = load i64, ptr @rb_eRuntimeError, align 8, !tbaa !6
  call void (i64, ptr, ...) @ossl_raise(i64 noundef %7, ptr noundef nonnull @.str) #12
  unreachable

8:                                                ; preds = %2
  %9 = call i64 @rb_obj_class(i64 noundef %0) #11
  %10 = call i64 @rb_data_typed_object_wrap(i64 noundef %9, ptr noundef null, ptr noundef nonnull @ossl_bn_type) #11
  %11 = call ptr @BN_new() #11
  %.not11 = icmp eq ptr %11, null
  br i1 %.not11, label %12, label %14

12:                                               ; preds = %8
  %13 = load i64, ptr @eBNError, align 8, !tbaa !6
  call void (i64, ptr, ...) @ossl_raise(i64 noundef %13, ptr noundef null) #12
  unreachable

14:                                               ; preds = %8
  %15 = load ptr, ptr @ossl_bn_ctx_key, align 8, !tbaa !16
  %16 = call ptr @rb_ractor_local_storage_ptr(ptr noundef %15) #11
  %.not.i = icmp eq ptr %16, null
  br i1 %.not.i, label %17, label %ossl_bn_ctx_get.exit

17:                                               ; preds = %14
  %18 = call ptr @BN_CTX_new() #11
  %.not5.i = icmp eq ptr %18, null
  br i1 %.not5.i, label %19, label %21

19:                                               ; preds = %17
  %20 = load i64, ptr @rb_eRuntimeError, align 8, !tbaa !6
  call void (i64, ptr, ...) @ossl_raise(i64 noundef %20, ptr noundef nonnull @.str.2) #12
  unreachable

21:                                               ; preds = %17
  %22 = load ptr, ptr @ossl_bn_ctx_key, align 8, !tbaa !16
  call void @rb_ractor_local_storage_ptr_set(ptr noundef %22, ptr noundef nonnull %18) #11
  br label %ossl_bn_ctx_get.exit

ossl_bn_ctx_get.exit:                             ; preds = %14, %21
  %.0.i = phi ptr [ %16, %14 ], [ %18, %21 ]
  %23 = call i32 @BN_mul(ptr noundef nonnull %11, ptr noundef nonnull %5, ptr noundef nonnull %4, ptr noundef nonnull %.0.i) #11
  %24 = icmp slt i32 %23, 1
  br i1 %24, label %25, label %27

25:                                               ; preds = %ossl_bn_ctx_get.exit
  call void @BN_free(ptr noundef nonnull %11) #11
  %26 = load i64, ptr @eBNError, align 8, !tbaa !6
  call void (i64, ptr, ...) @ossl_raise(i64 noundef %26, ptr noundef null) #12
  unreachable

27:                                               ; preds = %ossl_bn_ctx_get.exit
  %28 = inttoptr i64 %10 to ptr
  %29 = getelementptr inbounds nuw i8, ptr %28, i64 32
  store ptr %11, ptr %29, align 8, !tbaa !10
  ret i64 %10
}